target datalayout = "e-m:e-p270:32:32-p271:32:32-p272:64:64-i64:64-i128:128-f80:128-n8:16:32:64-S128"
target triple = "x86_64-pc-linux-gnu"

%struct.Float4X4 = type { %union.anon }
%union.anon = type { %struct.anon }
%struct.anon = type { float, float, float, float, float, float, float, float, float, float, float, float, float, float, float, float }
%struct.SDL_Renderer = type { ptr, ptr, ptr, ptr, ptr, ptr, ptr, ptr, ptr, ptr, ptr, ptr, ptr, ptr, ptr, ptr, ptr, ptr, ptr, ptr, ptr, ptr, ptr, ptr, ptr, ptr, ptr, ptr, ptr, ptr, i32, i8, ptr, i8, i8, i8, i64, i64, ptr, %struct.SDL_RenderViewState, %struct.SDL_FPoint, i32, i32, ptr, ptr, ptr, i32, float, float, float, float, %struct.SDL_FColor, i32, i32, i32, ptr, ptr, ptr, ptr, i32, %struct.SDL_FColor, float, %struct.SDL_Rect, %struct.SDL_Rect, i8, i8, i8, i8, ptr, i64, i64, i8, ptr, ptr, i32, ptr, i8, ptr, ptr }
%struct.SDL_RenderViewState = type { i32, i32, %struct.SDL_Rect, %struct.SDL_Rect, %struct.SDL_Rect, %struct.SDL_Rect, i8, %struct.SDL_FPoint, i32, i32, i32, %struct.SDL_FRect, %struct.SDL_FRect, %struct.SDL_FPoint, %struct.SDL_FPoint, %struct.SDL_FPoint }
%struct.SDL_FRect = type { float, float, float, float }
%struct.SDL_FPoint = type { float, float }
%struct.SDL_FColor = type { float, float, float, float }
%struct.SDL_Rect = type { i32, i32, i32, i32 }
%struct.VULKAN_RenderData = type { ptr, ptr, i8, ptr, i8, ptr, %struct.VkPhysicalDeviceProperties, %struct.VkPhysicalDeviceMemoryProperties, %struct.VkPhysicalDeviceFeatures, ptr, ptr, ptr, i8, i32, i32, ptr, ptr, ptr, i32, ptr, ptr, %struct.VkSurfaceCapabilitiesKHR, ptr, i8, i32, i32, ptr, [2 x ptr], ptr, [3 x ptr], [3 x ptr], ptr, ptr, [256 x %struct.VULKAN_Buffer], %struct.VULKAN_VertexShaderConstants, ptr, ptr, ptr, ptr, i32, i32, [8 x ptr], ptr, ptr, i32, i32, i32, ptr, ptr, i8, i8, i8, i32, i32, i32, %struct.VkSurfaceFormatKHR, %struct.VkExtent2D, i32, i32, ptr, ptr, ptr, ptr, ptr, ptr, i32, ptr, ptr, i32, i32, ptr, i32, i32, ptr, i8, i8, %struct.SDL_Rect, %struct.SDL_Rect, i32, i8, %struct.Float4X4, %struct.VkComponentMapping, i32, i8 }
%struct.VkPhysicalDeviceProperties = type { i32, i32, i32, i32, i32, [256 x i8], [16 x i8], %struct.VkPhysicalDeviceLimits, %struct.VkPhysicalDeviceSparseProperties }
%struct.VkPhysicalDeviceLimits = type { i32, i32, i32, i32, i32, i32, i32, i32, i32, i32, i32, i64, i64, i32, i32, i32, i32, i32, i32, i32, i32, i32, i32, i32, i32, i32, i32, i32, i32, i32, i32, i32, i32, i32, i32, i32, i32, i32, i32, i32, i32, i32, i32, i32, i32, i32, i32, i32, i32, i32, i32, i32, [3 x i32], i32, [3 x i32], i32, i32, i32, i32, i32, float, float, i32, [2 x i32], [2 x float], i32, i64, i64, i64, i64, i32, i32, i32, i32, float, float, i32, i32, i32, i32, i32, i32, i32, i32, i32, i32, i32, i32, i32, i32, i32, i32, float, i32, i32, i32, i32, [2 x float], [2 x float], float, float, i32, i32, i64, i64, i64 }
%struct.VkPhysicalDeviceSparseProperties = type { i32, i32, i32, i32, i32 }
%struct.VkPhysicalDeviceMemoryProperties = type { i32, [32 x %struct.VkMemoryType], i32, [16 x %struct.VkMemoryHeap] }
%struct.VkMemoryType = type { i32, i32 }
%struct.VkMemoryHeap = type { i64, i32 }
%struct.VkPhysicalDeviceFeatures = type { i32, i32, i32, i32, i32, i32, i32, i32, i32, i32, i32, i32, i32, i32, i32, i32, i32, i32, i32, i32, i32, i32, i32, i32, i32, i32, i32, i32, i32, i32, i32, i32, i32, i32, i32, i32, i32, i32, i32, i32, i32, i32, i32, i32, i32, i32, i32, i32, i32, i32, i32, i32, i32, i32, i32 }
%struct.VkSurfaceCapabilitiesKHR = type { i32, i32, %struct.VkExtent2D, %struct.VkExtent2D, %struct.VkExtent2D, i32, i32, i32, i32, i32 }
%struct.VULKAN_Buffer = type { ptr, ptr, i64, ptr }
%struct.VULKAN_VertexShaderConstants = type { %struct.Float4X4, %struct.Float4X4 }
%struct.VkSurfaceFormatKHR = type { i32, i32 }
%struct.VkExtent2D = type { i32, i32 }
%struct.VkComponentMapping = type { i32, i32, i32, i32 }

@.str.7 = private unnamed_addr constant [24 x i8] c"SDL_RENDER_VULKAN_DEBUG\00", align 1
@.str.8 = private unnamed_addr constant [7 x i8] c"%s: %s\00", align 1
@vkAcquireNextImageKHR = internal global ptr null, align 8
@.str.45 = private unnamed_addr constant [24 x i8] c"vkAcquireNextImageKHR()\00", align 1

; Function Attrs: nounwind uwtable
define internal i32 @VULKAN_AcquireNextSwapchainImage(ptr noundef %0) #0 {
  %2 = alloca i32, align 4
  %3 = alloca ptr, align 8
  %4 = alloca ptr, align 8
  %5 = alloca i32, align 4
  %6 = alloca i32, align 4
  store ptr %0, ptr %3, align 8
  call void @llvm.lifetime.start.p0(i64 8, ptr %4) #6
  %7 = load ptr, ptr %3, align 8
  %8 = getelementptr inbounds nuw %struct.SDL_Renderer, ptr %7, i32 0, i32 77
  %9 = load ptr, ptr %8, align 8
  store ptr %9, ptr %4, align 8
  call void @llvm.lifetime.start.p0(i64 4, ptr %5) #6
  %10 = load ptr, ptr %4, align 8
  %11 = getelementptr inbounds nuw %struct.VULKAN_RenderData, ptr %10, i32 0, i32 64
  store ptr null, ptr %11, align 8
  %12 = load ptr, ptr @vkAcquireNextImageKHR, align 8
  %13 = load ptr, ptr %4, align 8
  %14 = getelementptr inbounds nuw %struct.VULKAN_RenderData, ptr %13, i32 0, i32 11
  %15 = load ptr, ptr %14, align 8
  %16 = load ptr, ptr %4, align 8
  %17 = getelementptr inbounds nuw %struct.VULKAN_RenderData, ptr %16, i32 0, i32 15
  %18 = load ptr, ptr %17, align 8
  %19 = load ptr, ptr %4, align 8
  %20 = getelementptr inbounds nuw %struct.VULKAN_RenderData, ptr %19, i32 0, i32 62
  %21 = load ptr, ptr %20, align 8
  %22 = load ptr, ptr %4, align 8
  %23 = getelementptr inbounds nuw %struct.VULKAN_RenderData, ptr %22, i32 0, i32 18
  %24 = load i32, ptr %23, align 8
  %25 = zext i32 %24 to i64
  %26 = getelementptr inbounds nuw ptr, ptr %21, i64 %25
  %27 = load ptr, ptr %26, align 8
  %28 = load ptr, ptr %4, align 8
  %29 = getelementptr inbounds nuw %struct.VULKAN_RenderData, ptr %28, i32 0, i32 65
  %30 = call i32 %12(ptr noundef %15, ptr noundef %18, i64 noundef -1, ptr noundef %27, ptr noundef null, ptr noundef %29)
  store i32 %30, ptr %5, align 4
  %31 = load i32, ptr %5, align 4
  %32 = icmp eq i32 %31, -1000001004
  br i1 %32, label %36, label %33

33:                                               ; preds = %1
  %34 = load i32, ptr %5, align 4
  %35 = icmp eq i32 %34, -1000000000
  br i1 %35, label %36, label %40

36:                                               ; preds = %33, %1
  %37 = load ptr, ptr %3, align 8
  %38 = call i32 @VULKAN_CreateWindowSizeDependentResources(ptr noundef %37)
  store i32 %38, ptr %5, align 4
  %39 = load i32, ptr %5, align 4
  store i32 %39, ptr %2, align 4
  store i32 1, ptr %6, align 4
  br label %72

40:                                               ; preds = %33
  %41 = load i32, ptr %5, align 4
  %42 = icmp eq i32 %41, 1000001003
  br i1 %42, label %43, label %44

43:                                               ; preds = %40
  br label %58

44:                                               ; preds = %40
  %45 = load i32, ptr %5, align 4
  %46 = icmp ne i32 %45, 0
  br i1 %46, label %47, label %57

47:                                               ; preds = %44
  %48 = call zeroext i1 @SDL_GetHintBoolean_REAL(ptr noundef @.str.7, i1 noundef zeroext false)
  br i1 %48, label %49, label %52

49:                                               ; preds = %47
  %50 = load i32, ptr %5, align 4
  %51 = call ptr @SDL_Vulkan_GetResultString(i32 noundef %50)
  call void (i32, ptr, ...) @SDL_LogError_REAL(i32 noundef 6, ptr noundef @.str.8, ptr noundef @.str.45, ptr noundef %51)
  call void @llvm.debugtrap()
  br label %52

52:                                               ; preds = %49, %47
  %53 = load i32, ptr %5, align 4
  %54 = call ptr @SDL_Vulkan_GetResultString(i32 noundef %53)
  %55 = call zeroext i1 (ptr, ...) @SDL_SetError_REAL(ptr noundef @.str.8, ptr noundef @.str.45, ptr noundef %54)
  %56 = load i32, ptr %5, align 4
  store i32 %56, ptr %2, align 4
  store i32 1, ptr %6, align 4
  br label %72

57:                                               ; preds = %44
  br label %58

58:                                               ; preds = %57, %43
  br label %59

59:                                               ; preds = %58
  %60 = load ptr, ptr %4, align 8
  %61 = getelementptr inbounds nuw %struct.VULKAN_RenderData, ptr %60, i32 0, i32 62
  %62 = load ptr, ptr %61, align 8
  %63 = load ptr, ptr %4, align 8
  %64 = getelementptr inbounds nuw %struct.VULKAN_RenderData, ptr %63, i32 0, i32 18
  %65 = load i32, ptr %64, align 8
  %66 = zext i32 %65 to i64
  %67 = getelementptr inbounds nuw ptr, ptr %62, i64 %66
  %68 = load ptr, ptr %67, align 8
  %69 = load ptr, ptr %4, align 8
  %70 = getelementptr inbounds nuw %struct.VULKAN_RenderData, ptr %69, i32 0, i32 64
  store ptr %68, ptr %70, align 8
  %71 = load i32, ptr %5, align 4
  store i32 %71, ptr %2, align 4
  store i32 1, ptr %6, align 4
  br label %72

72:                                               ; preds = %59, %52, %36
  call void @llvm.lifetime.end.p0(i64 4, ptr %5) #6
  call void @llvm.lifetime.end.p0(i64 8, ptr %4) #6
  %73 = load i32, ptr %2, align 4
  ret i32 %73
}