; Function Attrs: nounwind uwtable
define internal fastcc void @VULKAN_AcquireNextSwapchainImage(ptr noundef %0) unnamed_addr #0 {
  %2 = getelementptr inbounds nuw i8, ptr %0, i64 696
  %3 = load ptr, ptr %2, align 8
  %4 = getelementptr inbounds nuw i8, ptr %3, i64 10432
  store ptr null, ptr %4, align 8
  %5 = load ptr, ptr @vkAcquireNextImageKHR, align 8
  %6 = getelementptr inbounds nuw i8, ptr %3, i64 1632
  %7 = load ptr, ptr %6, align 8
  %8 = getelementptr inbounds nuw i8, ptr %3, i64 1656
  %9 = load ptr, ptr %8, align 8
  %10 = getelementptr inbounds nuw i8, ptr %3, i64 10416
  %11 = load ptr, ptr %10, align 8
  %12 = getelementptr inbounds nuw i8, ptr %3, i64 1680
  %13 = load i32, ptr %12, align 8
  %14 = zext i32 %13 to i64
  %15 = getelementptr inbounds nuw ptr, ptr %11, i64 %14
  %16 = load ptr, ptr %15, align 8
  %17 = getelementptr inbounds nuw i8, ptr %3, i64 10440
  %18 = tail call i32 %5(ptr noundef %7, ptr noundef %9, i64 noundef -1, ptr noundef %16, ptr noundef null, ptr noundef nonnull %17) #8
  switch i32 %18, label %21 [
    i32 -1000000000, label %19
    i32 -1000001004, label %19
    i32 1000001003, label %28
    i32 0, label %28
  ]

19:                                               ; preds = %1, %1
  %20 = tail call fastcc i32 @VULKAN_CreateWindowSizeDependentResources(ptr noundef nonnull %0)
  br label %34

21:                                               ; preds = %1
  %22 = tail call zeroext i1 @SDL_GetHintBoolean_REAL(ptr noundef nonnull @.str.7, i1 noundef zeroext false) #8
  br i1 %22, label %23, label %25

23:                                               ; preds = %21
  %24 = tail call ptr @SDL_Vulkan_GetResultString(i32 noundef %18) #8
  tail call void (i32, ptr, ...) @SDL_LogError_REAL(i32 noundef 6, ptr noundef nonnull @.str.8, ptr noundef nonnull @.str.45, ptr noundef %24) #8
  tail call void @llvm.debugtrap()
  br label %25

25:                                               ; preds = %23, %21
  %26 = tail call ptr @SDL_Vulkan_GetResultString(i32 noundef %18) #8
  %27 = tail call zeroext i1 (ptr, ...) @SDL_SetError_REAL(ptr noundef nonnull @.str.8, ptr noundef nonnull @.str.45, ptr noundef %26) #8
  br label %34

28:                                               ; preds = %1, %1
  %29 = load ptr, ptr %10, align 8
  %30 = load i32, ptr %12, align 8
  %31 = zext i32 %30 to i64
  %32 = getelementptr inbounds nuw ptr, ptr %29, i64 %31
  %33 = load ptr, ptr %32, align 8
  store ptr %33, ptr %4, align 8
  br label %34

34:                                               ; preds = %28, %25, %19
  ret void
}